target datalayout = "e-m:e-p270:32:32-p271:32:32-p272:64:64-i64:64-i128:128-f80:128-n8:16:32:64-S128"
target triple = "x86_64-pc-linux-gnu"

%"class.std::__cxx11::basic_string" = type { %"struct.std::__cxx11::basic_string<char>::_Alloc_hider", i64, %union.anon }
%"struct.std::__cxx11::basic_string<char>::_Alloc_hider" = type { ptr }
%union.anon = type { i64, [8 x i8] }
%class.anon = type { %"class.boost::log::v2_mt_posix::sinks::anonymous::date_and_time_formatter", %"class.boost::log::v2_mt_posix::sinks::anonymous::file_counter_formatter", %"class.std::__cxx11::basic_string" }
%"class.boost::log::v2_mt_posix::sinks::anonymous::date_and_time_formatter" = type { %"class.boost::date_time::time_facet", %"class.std::__cxx11::basic_ostringstream" }
%"class.boost::date_time::time_facet" = type { %"class.boost::date_time::date_facet", %"class.std::__cxx11::basic_string" }
%"class.boost::date_time::date_facet" = type { %"class.std::locale::facet.base", %"class.std::__cxx11::basic_string", %"class.std::__cxx11::basic_string", %"class.std::__cxx11::basic_string", %"class.boost::date_time::period_formatter", %"class.boost::date_time::date_generator_formatter", %"class.boost::date_time::special_values_formatter", %"class.std::vector", %"class.std::vector", %"class.std::vector", %"class.std::vector" }
%"class.std::locale::facet.base" = type <{ ptr, i32 }>
%"class.boost::date_time::period_formatter" = type { i32, %"class.std::__cxx11::basic_string", %"class.std::__cxx11::basic_string", %"class.std::__cxx11::basic_string", %"class.std::__cxx11::basic_string" }
%"class.boost::date_time::date_generator_formatter" = type { %"class.std::vector" }
%"class.boost::date_time::special_values_formatter" = type { %"class.std::vector" }
%"class.std::vector" = type { %"struct.std::_Vector_base" }
%"struct.std::_Vector_base" = type { %"struct.std::_Vector_base<std::__cxx11::basic_string<char>, std::allocator<std::__cxx11::basic_string<char>>>::_Vector_impl" }
%"struct.std::_Vector_base<std::__cxx11::basic_string<char>, std::allocator<std::__cxx11::basic_string<char>>>::_Vector_impl" = type { %"struct.std::_Vector_base<std::__cxx11::basic_string<char>, std::allocator<std::__cxx11::basic_string<char>>>::_Vector_impl_data" }
%"struct.std::_Vector_base<std::__cxx11::basic_string<char>, std::allocator<std::__cxx11::basic_string<char>>>::_Vector_impl_data" = type { ptr, ptr, ptr }
%"class.std::__cxx11::basic_ostringstream" = type { %"class.std::basic_ostream.base", %"class.std::__cxx11::basic_stringbuf", %"class.std::basic_ios" }
%"class.std::basic_ostream.base" = type { ptr }
%"class.std::__cxx11::basic_stringbuf" = type { %"class.std::basic_streambuf", i32, %"class.std::__cxx11::basic_string" }
%"class.std::basic_streambuf" = type { ptr, ptr, ptr, ptr, ptr, ptr, ptr, %"class.std::locale" }
%"class.std::locale" = type { ptr }
%"class.std::basic_ios" = type { %"class.std::ios_base", ptr, i8, i8, ptr, ptr, ptr, ptr }
%"class.std::ios_base" = type { ptr, i64, i64, i32, i32, i32, ptr, %"struct.std::ios_base::_Words", [8 x %"struct.std::ios_base::_Words"], i32, ptr, %"class.std::locale" }
%"struct.std::ios_base::_Words" = type { ptr, i64 }
%"class.boost::log::v2_mt_posix::sinks::anonymous::file_counter_formatter" = type { i64, i64, %"class.std::__cxx11::basic_ostringstream" }
%"struct.boost::log::v2_mt_posix::aux::light_function<std::__cxx11::basic_string<char> (unsigned int)>::impl_base" = type { ptr, ptr, ptr }
%"class.boost::log::v2_mt_posix::aux::light_function<std::__cxx11::basic_string<char> (unsigned int)>::impl" = type { %"struct.boost::log::v2_mt_posix::aux::light_function<std::__cxx11::basic_string<char> (unsigned int)>::impl_base", %class.anon }

; Function Attrs: inlinehint mustprogress nounwind uwtable
define internal void @"_ZN5boost3log11v2_mt_posix3aux14light_functionIFNSt7__cxx1112basic_stringIcSt11char_traitsIcESaIcEEEjEE4implIZNS1_5sinks9anonymous23parse_file_name_patternERKNS_10filesystem4pathERSG_SJ_RSB_E3$_0ED2Ev"(ptr noundef nonnull align 8 dereferenceable(1248) %0) unnamed_addr #5 align 2 {
  %2 = alloca ptr, align 8
  store ptr %0, ptr %2, align 8, !tbaa !3
  %3 = load ptr, ptr %2, align 8
  %4 = getelementptr inbounds nuw %"class.boost::log::v2_mt_posix::aux::light_function<std::__cxx11::basic_string<char> (unsigned int)>::impl", ptr %3, i32 0, i32 1
  call void @"_ZZN5boost3log11v2_mt_posix5sinks9anonymous23parse_file_name_patternERKNS_10filesystem4pathERS5_S8_RNS1_3aux14light_functionIFNSt7__cxx1112basic_stringIcSt11char_traitsIcESaIcEEEjEEEEN3$_0D2Ev"(ptr noundef nonnull align 8 dereferenceable(1224) %4) #9
  ret void
}

; Function Attrs: mustprogress nounwind uwtable
define internal void @"_ZN5boost3log11v2_mt_posix3aux14light_functionIFNSt7__cxx1112basic_stringIcSt11char_traitsIcESaIcEEEjEE4implIZNS1_5sinks9anonymous23parse_file_name_patternERKNS_10filesystem4pathERSG_SJ_RSB_E3$_0E12destroy_implEPv"(ptr noundef %0) #3 align 2 {
  %2 = alloca ptr, align 8
  store ptr %0, ptr %2, align 8, !tbaa !3
  %3 = load ptr, ptr %2, align 8, !tbaa !3
  %4 = icmp eq ptr %3, null
  br i1 %4, label %6, label %5

5:                                                ; preds = %1
  call void @"_ZN5boost3log11v2_mt_posix3aux14light_functionIFNSt7__cxx1112basic_stringIcSt11char_traitsIcESaIcEEEjEE4implIZNS1_5sinks9anonymous23parse_file_name_patternERKNS_10filesystem4pathERSG_SJ_RSB_E3$_0ED2Ev"(ptr noundef nonnull align 8 dereferenceable(1248) %3) #9
  call void @_ZdlPvm(ptr noundef %3, i64 noundef 1248) #29
  br label %6

6:                                                ; preds = %5, %1
  ret void
}