; Function Attrs: mustprogress nounwind uwtable
define internal void @"_ZN5boost3log11v2_mt_posix3aux14light_functionIFNSt7__cxx1112basic_stringIcSt11char_traitsIcESaIcEEEjEE4implIZNS1_5sinks9anonymous23parse_file_name_patternERKNS_10filesystem4pathERSG_SJ_RSB_E3$_0E12destroy_implEPv"(ptr noundef %0) #11 align 2 {
  %2 = icmp eq ptr %0, null
  br i1 %2, label %5, label %3

3:                                                ; preds = %1
  %4 = getelementptr inbounds nuw i8, ptr %0, i64 24
  tail call fastcc void @"_ZZN5boost3log11v2_mt_posix5sinks9anonymous23parse_file_name_patternERKNS_10filesystem4pathERS5_S8_RNS1_3aux14light_functionIFNSt7__cxx1112basic_stringIcSt11char_traitsIcESaIcEEEjEEEEN3$_0D2Ev"(ptr noundef nonnull align 8 dereferenceable(1224) %4) #29
  tail call void @_ZdlPvm(ptr noundef nonnull %0, i64 noundef 1248) #32
  br label %5

5:                                                ; preds = %3, %1
  ret void
}